	.file	"function_overload.cpp"
	.local	_ZStL8__ioinit
	.comm	_ZStL8__ioinit,1,1
	.text
	.globl	_Z3addii
	.type	_Z3addii, @function
_Z3addii:
.LFB1020:
	.cfi_startproc
	pushq	%rbp
	.cfi_def_cfa_offset 16
	.cfi_offset 6, -16
	movq	%rsp, %rbp
	.cfi_def_cfa_register 6
	movl	%edi, -4(%rbp)
	movl	%esi, -8(%rbp)
	movl	-4(%rbp), %edx
	movl	-8(%rbp), %eax
	addl	%edx, %eax
	popq	%rbp
	.cfi_def_cfa 7, 8
	ret
	.cfi_endproc
.LFE1020:
	.size	_Z3addii, .-_Z3addii
	.globl	_Z3addfi
	.type	_Z3addfi, @function
_Z3addfi:
.LFB1021:
	.cfi_startproc
	pushq	%rbp
	.cfi_def_cfa_offset 16
	.cfi_offset 6, -16
	movq	%rsp, %rbp
	.cfi_def_cfa_register 6
	movss	%xmm0, -4(%rbp)
	movl	%edi, -8(%rbp)
	pxor	%xmm0, %xmm0
	cvtsi2ss	-8(%rbp), %xmm0
	addss	-4(%rbp), %xmm0
	popq	%rbp
	.cfi_def_cfa 7, 8
	ret
	.cfi_endproc
.LFE1021:
	.size	_Z3addfi, .-_Z3addfi
	.section	.rodata
.LC0:
	.string	":"
	.text
	.globl	_Z3addif
	.type	_Z3addif, @function
_Z3addif:
.LFB1022:
	.cfi_startproc
	pushq	%rbp
	.cfi_def_cfa_offset 16
	.cfi_offset 6, -16
	movq	%rsp, %rbp
	.cfi_def_cfa_register 6
	subq	$16, %rsp
	movl	%edi, -4(%rbp)
	movss	%xmm0, -8(%rbp)
	movl	-4(%rbp), %eax
	movl	%eax, %esi
	movl	$_ZSt4cout, %edi
	call	_ZNSolsEi
	movl	$.LC0, %esi
	movq	%rax, %rdi
	call	_ZStlsISt11char_traitsIcEERSt13basic_ostreamIcT_ES5_PKc
	movq	%rax, %rdx
	movl	-8(%rbp), %eax
	movl	%eax, -12(%rbp)
	movss	-12(%rbp), %xmm0
	movq	%rdx, %rdi
	call	_ZNSolsEf
	movl	$_ZSt4endlIcSt11char_traitsIcEERSt13basic_ostreamIT_T0_ES6_, %esi
	movq	%rax, %rdi
	call	_ZNSolsEPFRSoS_E
	pxor	%xmm0, %xmm0
	cvtsi2ss	-4(%rbp), %xmm0
	addss	-8(%rbp), %xmm0
	leave
	.cfi_def_cfa 7, 8
	ret
	.cfi_endproc
.LFE1022:
	.size	_Z3addif, .-_Z3addif
	.globl	main
	.type	main, @function
main:
.LFB1023:
	.cfi_startproc
	pushq	%rbp
	.cfi_def_cfa_offset 16
	.cfi_offset 6, -16
	movq	%rsp, %rbp
	.cfi_def_cfa_register 6
	movss	.LC1(%rip), %xmm0
	movl	$10, %edi
	call	_Z3addif
	movss	.LC2(%rip), %xmm0
	movl	$10, %edi
	call	_Z3addif
	movl	$20, %esi
	movl	$10, %edi
	call	_Z3addii
	movl	$20, %edi
	movss	.LC3(%rip), %xmm0
	call	_Z3addfi
	movl	$0, %eax
	popq	%rbp
	.cfi_def_cfa 7, 8
	ret
	.cfi_endproc
.LFE1023:
	.size	main, .-main
	.type	_Z41__static_initialization_and_destruction_0ii, @function
_Z41__static_initialization_and_destruction_0ii:
.LFB1033:
	.cfi_startproc
	pushq	%rbp
	.cfi_def_cfa_offset 16
	.cfi_offset 6, -16
	movq	%rsp, %rbp
	.cfi_def_cfa_register 6
	subq	$16, %rsp
	movl	%edi, -4(%rbp)
	movl	%esi, -8(%rbp)
	cmpl	$1, -4(%rbp)
	jne	.L9
	cmpl	$65535, -8(%rbp)
	jne	.L9
	movl	$_ZStL8__ioinit, %edi
	call	_ZNSt8ios_base4InitC1Ev
	movl	$__dso_handle, %edx
	movl	$_ZStL8__ioinit, %esi
	movl	$_ZNSt8ios_base4InitD1Ev, %edi
	call	__cxa_atexit
.L9:
	leave
	.cfi_def_cfa 7, 8
	ret
	.cfi_endproc
.LFE1033:
	.size	_Z41__static_initialization_and_destruction_0ii, .-_Z41__static_initialization_and_destruction_0ii
	.type	_GLOBAL__sub_I__Z3addii, @function
_GLOBAL__sub_I__Z3addii:
.LFB1034:
	.cfi_startproc
	pushq	%rbp
	.cfi_def_cfa_offset 16
	.cfi_offset 6, -16
	movq	%rsp, %rbp
	.cfi_def_cfa_register 6
	movl	$65535, %esi
	movl	$1, %edi
	call	_Z41__static_initialization_and_destruction_0ii
	popq	%rbp
	.cfi_def_cfa 7, 8
	ret
	.cfi_endproc
.LFE1034:
	.size	_GLOBAL__sub_I__Z3addii, .-_GLOBAL__sub_I__Z3addii
	.section	.init_array,"aw"
	.align 8
	.quad	_GLOBAL__sub_I__Z3addii
	.section	.rodata
	.align 4
.LC1:
	.long	1101162086
	.align 4
.LC2:
	.long	1067030938
	.align 4
.LC3:
	.long	1092616192
	.hidden	__dso_handle
	.ident	"GCC: (Ubuntu 4.9.2-10ubuntu13) 4.9.2"
	.section	.note.GNU-stack,"",@progbits
