	.file	"main.cpp"
	.local	_ZStL8__ioinit
	.comm	_ZStL8__ioinit,1,1
	.text
	.globl	_Z3addf
	.type	_Z3addf, @function
_Z3addf:
.LFB971:
	.cfi_startproc
	pushl	%ebp
	.cfi_def_cfa_offset 8
	.cfi_offset 5, -8
	movl	%esp, %ebp
	.cfi_def_cfa_register 5
	flds	.LC0
	fstp	%st(0)
	flds	.LC0
	popl	%ebp
	.cfi_restore 5
	.cfi_def_cfa 4, 4
	ret
	.cfi_endproc
.LFE971:
	.size	_Z3addf, .-_Z3addf
	.globl	_Z3addi
	.type	_Z3addi, @function
_Z3addi:
.LFB972:
	.cfi_startproc
	pushl	%ebp
	.cfi_def_cfa_offset 8
	.cfi_offset 5, -8
	movl	%esp, %ebp
	.cfi_def_cfa_register 5
	popl	%ebp
	.cfi_restore 5
	.cfi_def_cfa 4, 4
	ret
	.cfi_endproc
.LFE972:
	.size	_Z3addi, .-_Z3addi
	.globl	_Z3addif
	.type	_Z3addif, @function
_Z3addif:
.LFB973:
	.cfi_startproc
	pushl	%ebp
	.cfi_def_cfa_offset 8
	.cfi_offset 5, -8
	movl	%esp, %ebp
	.cfi_def_cfa_register 5
	fildl	8(%ebp)
	fadds	12(%ebp)
	popl	%ebp
	.cfi_restore 5
	.cfi_def_cfa 4, 4
	ret
	.cfi_endproc
.LFE973:
	.size	_Z3addif, .-_Z3addif
	.section	.rodata
.LC1:
	.string	"Integer Addition\n"
	.text
	.globl	_Z3addiiii
	.type	_Z3addiiii, @function
_Z3addiiii:
.LFB974:
	.cfi_startproc
	pushl	%ebp
	.cfi_def_cfa_offset 8
	.cfi_offset 5, -8
	movl	%esp, %ebp
	.cfi_def_cfa_register 5
	subl	$24, %esp
	movl	$.LC1, 4(%esp)
	movl	$_ZSt4cout, (%esp)
	call	_ZStlsISt11char_traitsIcEERSt13basic_ostreamIcT_ES5_PKc
	movl	12(%ebp), %eax
	movl	8(%ebp), %edx
	addl	%eax, %edx
	movl	16(%ebp), %eax
	addl	%eax, %edx
	movl	20(%ebp), %eax
	addl	%edx, %eax
	leave
	.cfi_restore 5
	.cfi_def_cfa 4, 4
	ret
	.cfi_endproc
.LFE974:
	.size	_Z3addiiii, .-_Z3addiiii
	.section	.rodata
.LC2:
	.string	"Float Addition\n"
	.text
	.globl	_Z3addff
	.type	_Z3addff, @function
_Z3addff:
.LFB975:
	.cfi_startproc
	pushl	%ebp
	.cfi_def_cfa_offset 8
	.cfi_offset 5, -8
	movl	%esp, %ebp
	.cfi_def_cfa_register 5
	subl	$24, %esp
	movl	$.LC2, 4(%esp)
	movl	$_ZSt4cout, (%esp)
	call	_ZStlsISt11char_traitsIcEERSt13basic_ostreamIcT_ES5_PKc
	flds	8(%ebp)
	fadds	12(%ebp)
	leave
	.cfi_restore 5
	.cfi_def_cfa 4, 4
	ret
	.cfi_endproc
.LFE975:
	.size	_Z3addff, .-_Z3addff
	.globl	_Z3addfi
	.type	_Z3addfi, @function
_Z3addfi:
.LFB976:
	.cfi_startproc
	pushl	%ebp
	.cfi_def_cfa_offset 8
	.cfi_offset 5, -8
	movl	%esp, %ebp
	.cfi_def_cfa_register 5
	flds	.LC0
	fstp	%st(0)
	flds	.LC0
	popl	%ebp
	.cfi_restore 5
	.cfi_def_cfa 4, 4
	ret
	.cfi_endproc
.LFE976:
	.size	_Z3addfi, .-_Z3addfi
	.globl	_Z3addc
	.type	_Z3addc, @function
_Z3addc:
.LFB977:
	.cfi_startproc
	pushl	%ebp
	.cfi_def_cfa_offset 8
	.cfi_offset 5, -8
	movl	%esp, %ebp
	.cfi_def_cfa_register 5
	subl	$4, %esp
	movl	8(%ebp), %eax
	movb	%al, -4(%ebp)
	leave
	.cfi_restore 5
	.cfi_def_cfa 4, 4
	ret
	.cfi_endproc
.LFE977:
	.size	_Z3addc, .-_Z3addc
	.globl	_Z4Demoh
	.type	_Z4Demoh, @function
_Z4Demoh:
.LFB978:
	.cfi_startproc
	pushl	%ebp
	.cfi_def_cfa_offset 8
	.cfi_offset 5, -8
	movl	%esp, %ebp
	.cfi_def_cfa_register 5
	subl	$4, %esp
	movl	8(%ebp), %eax
	movb	%al, -4(%ebp)
	leave
	.cfi_restore 5
	.cfi_def_cfa 4, 4
	ret
	.cfi_endproc
.LFE978:
	.size	_Z4Demoh, .-_Z4Demoh
	.section	.rodata
.LC4:
	.string	"Add function of int is "
.LC7:
	.string	"Add function of float is "
	.text
	.globl	main
	.type	main, @function
main:
.LFB979:
	.cfi_startproc
	pushl	%ebp
	.cfi_def_cfa_offset 8
	.cfi_offset 5, -8
	movl	%esp, %ebp
	.cfi_def_cfa_register 5
	andl	$-16, %esp
	subl	$16, %esp
	movl	.LC3, %eax
	movl	%eax, 4(%esp)
	movl	$10, (%esp)
	call	_Z3addif
	fstps	12(%esp)
	movl	$.LC4, 4(%esp)
	movl	$_ZSt4cout, (%esp)
	call	_ZStlsISt11char_traitsIcEERSt13basic_ostreamIcT_ES5_PKc
	flds	12(%esp)
	fstps	4(%esp)
	movl	%eax, (%esp)
	call	_ZNSolsEf
	movl	$_ZSt4endlIcSt11char_traitsIcEERSt13basic_ostreamIT_T0_ES6_, 4(%esp)
	movl	%eax, (%esp)
	call	_ZNSolsEPFRSoS_E
	movl	.LC5, %eax
	movl	%eax, 4(%esp)
	movl	.LC6, %eax
	movl	%eax, (%esp)
	call	_Z3addff
	fstps	12(%esp)
	movl	$.LC7, 4(%esp)
	movl	$_ZSt4cout, (%esp)
	call	_ZStlsISt11char_traitsIcEERSt13basic_ostreamIcT_ES5_PKc
	flds	12(%esp)
	fstps	4(%esp)
	movl	%eax, (%esp)
	call	_ZNSolsEf
	movl	$_ZSt4endlIcSt11char_traitsIcEERSt13basic_ostreamIT_T0_ES6_, 4(%esp)
	movl	%eax, (%esp)
	call	_ZNSolsEPFRSoS_E
	movl	$10, (%esp)
	call	_Z4Demoh
	movl	$65, (%esp)
	call	_Z3addi
	movl	$0, %eax
	leave
	.cfi_restore 5
	.cfi_def_cfa 4, 4
	ret
	.cfi_endproc
.LFE979:
	.size	main, .-main
	.type	_Z41__static_initialization_and_destruction_0ii, @function
_Z41__static_initialization_and_destruction_0ii:
.LFB989:
	.cfi_startproc
	pushl	%ebp
	.cfi_def_cfa_offset 8
	.cfi_offset 5, -8
	movl	%esp, %ebp
	.cfi_def_cfa_register 5
	subl	$24, %esp
	cmpl	$1, 8(%ebp)
	jne	.L14
	cmpl	$65535, 12(%ebp)
	jne	.L14
	movl	$_ZStL8__ioinit, (%esp)
	call	_ZNSt8ios_base4InitC1Ev
	movl	$__dso_handle, 8(%esp)
	movl	$_ZStL8__ioinit, 4(%esp)
	movl	$_ZNSt8ios_base4InitD1Ev, (%esp)
	call	__cxa_atexit
.L14:
	leave
	.cfi_restore 5
	.cfi_def_cfa 4, 4
	ret
	.cfi_endproc
.LFE989:
	.size	_Z41__static_initialization_and_destruction_0ii, .-_Z41__static_initialization_and_destruction_0ii
	.type	_GLOBAL__sub_I__Z3addf, @function
_GLOBAL__sub_I__Z3addf:
.LFB990:
	.cfi_startproc
	pushl	%ebp
	.cfi_def_cfa_offset 8
	.cfi_offset 5, -8
	movl	%esp, %ebp
	.cfi_def_cfa_register 5
	subl	$24, %esp
	movl	$65535, 4(%esp)
	movl	$1, (%esp)
	call	_Z41__static_initialization_and_destruction_0ii
	leave
	.cfi_restore 5
	.cfi_def_cfa 4, 4
	ret
	.cfi_endproc
.LFE990:
	.size	_GLOBAL__sub_I__Z3addf, .-_GLOBAL__sub_I__Z3addf
	.section	.init_array,"aw"
	.align 4
	.long	_GLOBAL__sub_I__Z3addf
	.section	.rodata
	.align 4
.LC0:
	.long	2143289344
	.align 4
.LC3:
	.long	1101004800
	.align 4
.LC5:
	.long	1101162086
	.align 4
.LC6:
	.long	1092825907
	.hidden	__dso_handle
	.ident	"GCC: (Ubuntu 4.8.2-19ubuntu1) 4.8.2"
	.section	.note.GNU-stack,"",@progbits
