	.file	"name_mangling.c"
	.local	_ZStL8__ioinit
	.comm	_ZStL8__ioinit,1,1
	.text
	.globl	_Z3addv
	.type	_Z3addv, @function
_Z3addv:
.LFB971:
	.cfi_startproc
	pushl	%ebp
	.cfi_def_cfa_offset 8
	.cfi_offset 5, -8
	movl	%esp, %ebp
	.cfi_def_cfa_register 5
	popl	%ebp
	.cfi_restore 5
	.cfi_def_cfa 4, 4
	ret
	.cfi_endproc
.LFE971:
	.size	_Z3addv, .-_Z3addv
	.globl	_Z3addii
	.type	_Z3addii, @function
_Z3addii:
.LFB972:
	.cfi_startproc
	pushl	%ebp
	.cfi_def_cfa_offset 8
	.cfi_offset 5, -8
	movl	%esp, %ebp
	.cfi_def_cfa_register 5
	flds	.LC0
	fstp	%st(0)
	flds	.LC0
	popl	%ebp
	.cfi_restore 5
	.cfi_def_cfa 4, 4
	ret
	.cfi_endproc
.LFE972:
	.size	_Z3addii, .-_Z3addii
	.globl	main
	.type	main, @function
main:
.LFB973:
	.cfi_startproc
	pushl	%ebp
	.cfi_def_cfa_offset 8
	.cfi_offset 5, -8
	movl	%esp, %ebp
	.cfi_def_cfa_register 5
	movl	$0, %eax
	popl	%ebp
	.cfi_restore 5
	.cfi_def_cfa 4, 4
	ret
	.cfi_endproc
.LFE973:
	.size	main, .-main
	.type	_Z41__static_initialization_and_destruction_0ii, @function
_Z41__static_initialization_and_destruction_0ii:
.LFB974:
	.cfi_startproc
	pushl	%ebp
	.cfi_def_cfa_offset 8
	.cfi_offset 5, -8
	movl	%esp, %ebp
	.cfi_def_cfa_register 5
	subl	$24, %esp
	cmpl	$1, 8(%ebp)
	jne	.L5
	cmpl	$65535, 12(%ebp)
	jne	.L5
	movl	$_ZStL8__ioinit, (%esp)
	call	_ZNSt8ios_base4InitC1Ev
	movl	$__dso_handle, 8(%esp)
	movl	$_ZStL8__ioinit, 4(%esp)
	movl	$_ZNSt8ios_base4InitD1Ev, (%esp)
	call	__cxa_atexit
.L5:
	leave
	.cfi_restore 5
	.cfi_def_cfa 4, 4
	ret
	.cfi_endproc
.LFE974:
	.size	_Z41__static_initialization_and_destruction_0ii, .-_Z41__static_initialization_and_destruction_0ii
	.type	_GLOBAL__sub_I__Z3addv, @function
_GLOBAL__sub_I__Z3addv:
.LFB975:
	.cfi_startproc
	pushl	%ebp
	.cfi_def_cfa_offset 8
	.cfi_offset 5, -8
	movl	%esp, %ebp
	.cfi_def_cfa_register 5
	subl	$24, %esp
	movl	$65535, 4(%esp)
	movl	$1, (%esp)
	call	_Z41__static_initialization_and_destruction_0ii
	leave
	.cfi_restore 5
	.cfi_def_cfa 4, 4
	ret
	.cfi_endproc
.LFE975:
	.size	_GLOBAL__sub_I__Z3addv, .-_GLOBAL__sub_I__Z3addv
	.section	.init_array,"aw"
	.align 4
	.long	_GLOBAL__sub_I__Z3addv
	.section	.rodata
	.align 4
.LC0:
	.long	2143289344
	.hidden	__dso_handle
	.ident	"GCC: (Ubuntu 4.8.2-19ubuntu1) 4.8.2"
	.section	.note.GNU-stack,"",@progbits
